target datalayout = "e-m:e-p270:32:32-p271:32:32-p272:64:64-i64:64-i128:128-f80:128-n8:16:32:64-S128"
target triple = "x86_64-pc-linux-gnu"

%struct.child_prov_globals = type { ptr, ptr, ptr, ptr, ptr, ptr, ptr, ptr, ptr, ptr, ptr }

; Function Attrs: nounwind uwtable
define internal i32 @provider_remove_child_cb(ptr noundef %0, ptr noundef %1) #0 {
  %3 = alloca i32, align 4
  %4 = alloca ptr, align 8
  %5 = alloca ptr, align 8
  %6 = alloca ptr, align 8
  %7 = alloca ptr, align 8
  %8 = alloca ptr, align 8
  %9 = alloca ptr, align 8
  %10 = alloca i32, align 4
  store ptr %0, ptr %4, align 8, !tbaa !14
  store ptr %1, ptr %5, align 8, !tbaa !8
  call void @llvm.lifetime.start.p0(i64 8, ptr %6) #4
  %11 = load ptr, ptr %5, align 8, !tbaa !8
  store ptr %11, ptr %6, align 8, !tbaa !3
  call void @llvm.lifetime.start.p0(i64 8, ptr %7) #4
  call void @llvm.lifetime.start.p0(i64 8, ptr %8) #4
  call void @llvm.lifetime.start.p0(i64 8, ptr %9) #4
  %12 = load ptr, ptr %6, align 8, !tbaa !3
  %13 = call ptr @ossl_lib_ctx_get_data(ptr noundef %12, i32 noundef 18)
  store ptr %13, ptr %7, align 8, !tbaa !9
  %14 = load ptr, ptr %7, align 8, !tbaa !9
  %15 = icmp eq ptr %14, null
  br i1 %15, label %16, label %17

16:                                               ; preds = %2
  store i32 0, ptr %3, align 4
  store i32 1, ptr %10, align 4
  br label %40

17:                                               ; preds = %2
  %18 = load ptr, ptr %7, align 8, !tbaa !9
  %19 = getelementptr inbounds nuw %struct.child_prov_globals, ptr %18, i32 0, i32 6
  %20 = load ptr, ptr %19, align 8, !tbaa !24
  %21 = load ptr, ptr %4, align 8, !tbaa !14
  %22 = call ptr %20(ptr noundef %21)
  store ptr %22, ptr %8, align 8, !tbaa !33
  %23 = load ptr, ptr %6, align 8, !tbaa !3
  %24 = load ptr, ptr %8, align 8, !tbaa !33
  %25 = call ptr @ossl_provider_find(ptr noundef %23, ptr noundef %24, i32 noundef 1)
  store ptr %25, ptr %9, align 8, !tbaa !36
  %26 = load ptr, ptr %9, align 8, !tbaa !36
  %27 = icmp eq ptr %26, null
  br i1 %27, label %28, label %29

28:                                               ; preds = %17
  store i32 0, ptr %3, align 4
  store i32 1, ptr %10, align 4
  br label %40

29:                                               ; preds = %17
  %30 = load ptr, ptr %9, align 8, !tbaa !36
  call void @ossl_provider_free(ptr noundef %30)
  %31 = load ptr, ptr %9, align 8, !tbaa !36
  %32 = call i32 @ossl_provider_is_child(ptr noundef %31)
  %33 = icmp ne i32 %32, 0
  br i1 %33, label %34, label %39

34:                                               ; preds = %29
  %35 = load ptr, ptr %9, align 8, !tbaa !36
  %36 = call i32 @ossl_provider_deactivate(ptr noundef %35, i32 noundef 1)
  %37 = icmp ne i32 %36, 0
  br i1 %37, label %39, label %38

38:                                               ; preds = %34
  store i32 0, ptr %3, align 4
  store i32 1, ptr %10, align 4
  br label %40

39:                                               ; preds = %34, %29
  store i32 1, ptr %3, align 4
  store i32 1, ptr %10, align 4
  br label %40

40:                                               ; preds = %39, %38, %28, %16
  call void @llvm.lifetime.end.p0(i64 8, ptr %9) #4
  call void @llvm.lifetime.end.p0(i64 8, ptr %8) #4
  call void @llvm.lifetime.end.p0(i64 8, ptr %7) #4
  call void @llvm.lifetime.end.p0(i64 8, ptr %6) #4
  %41 = load i32, ptr %3, align 4
  ret i32 %41
}