; Function Attrs: nounwind uwtable
define internal range(i32 0, 2) i32 @provider_remove_child_cb(ptr noundef %0, ptr noundef %1) #0 {
  %3 = tail call ptr @ossl_lib_ctx_get_data(ptr noundef %1, i32 noundef 18) #2
  %4 = icmp eq ptr %3, null
  br i1 %4, label %16, label %5

5:                                                ; preds = %2
  %6 = getelementptr inbounds nuw i8, ptr %3, i64 48
  %7 = load ptr, ptr %6, align 8, !tbaa !17
  %8 = tail call ptr %7(ptr noundef %0) #2
  %9 = tail call ptr @ossl_provider_find(ptr noundef %1, ptr noundef %8, i32 noundef 1) #2
  %10 = icmp eq ptr %9, null
  br i1 %10, label %16, label %11

11:                                               ; preds = %5
  tail call void @ossl_provider_free(ptr noundef nonnull %9) #2
  %12 = tail call i32 @ossl_provider_is_child(ptr noundef nonnull %9) #2
  %.not = icmp eq i32 %12, 0
  br i1 %.not, label %15, label %13

13:                                               ; preds = %11
  %14 = tail call i32 @ossl_provider_deactivate(ptr noundef nonnull %9, i32 noundef 1) #2
  %.not13 = icmp eq i32 %14, 0
  br i1 %.not13, label %16, label %15

15:                                               ; preds = %13, %11
  br label %16

16:                                               ; preds = %13, %5, %2, %15
  %.0 = phi i32 [ 1, %15 ], [ 0, %2 ], [ 0, %5 ], [ 0, %13 ]
  ret i32 %.0
}